; Function Attrs: mustprogress uwtable
define hidden noundef zeroext i1 @_ZNK6google8protobuf20stringpiece_internal11StringPiece8containsES2_(ptr noundef nonnull readonly align 8 captures(none) dereferenceable(16) %0, ptr %1, i64 %2) local_unnamed_addr #0 align 2 {
  %4 = getelementptr inbounds nuw i8, ptr %0, i64 8
  %5 = load i64, ptr %4, align 8, !tbaa !10
  %6 = icmp eq i64 %5, 0
  br i1 %6, label %7, label %9

7:                                                ; preds = %3
  %8 = icmp ne i64 %2, 0
  %..i = sext i1 %8 to i64
  br label %_ZNK6google8protobuf20stringpiece_internal11StringPiece4findES2_m.exit

9:                                                ; preds = %3
  %10 = load ptr, ptr %0, align 8, !tbaa !3
  %11 = getelementptr inbounds nuw i8, ptr %10, i64 %5
  %12 = getelementptr inbounds nuw i8, ptr %1, i64 %2
  %13 = tail call noundef ptr @_ZSt8__searchIPKcS1_N9__gnu_cxx5__ops19_Iter_equal_to_iterEET_S5_S5_T0_S6_T1_(ptr noundef %10, ptr noundef nonnull %11, ptr noundef %1, ptr noundef %12)
  %14 = load ptr, ptr %0, align 8, !tbaa !3
  %15 = load i64, ptr %4, align 8, !tbaa !10
  %16 = getelementptr inbounds nuw i8, ptr %14, i64 %15
  %17 = icmp eq ptr %13, %16
  %18 = ptrtoint ptr %13 to i64
  %19 = ptrtoint ptr %14 to i64
  %20 = sub i64 %18, %19
  %21 = select i1 %17, i64 -1, i64 %20
  br label %_ZNK6google8protobuf20stringpiece_internal11StringPiece4findES2_m.exit

_ZNK6google8protobuf20stringpiece_internal11StringPiece4findES2_m.exit: ; preds = %7, %9
  %.0.i = phi i64 [ %21, %9 ], [ %..i, %7 ]
  %22 = icmp ne i64 %.0.i, -1
  ret i1 %22
}